target datalayout = "e-m:e-p270:32:32-p271:32:32-p272:64:64-i64:64-i128:128-f80:128-n8:16:32:64-S128"
target triple = "x86_64-pc-linux-gnu"

%struct.pmix_list_t = type { %struct.pmix_object_t, %struct.pmix_list_item_t, i64 }
%struct.pmix_object_t = type { %union.pthread_mutex_t, ptr, i32, %struct.pmix_tma }
%union.pthread_mutex_t = type { %struct.__pthread_mutex_s }
%struct.__pthread_mutex_s = type { i32, i32, i32, i32, i32, i16, i16, %struct.__pthread_internal_list }
%struct.__pthread_internal_list = type { ptr, ptr }
%struct.pmix_tma = type { ptr, ptr, ptr, ptr, ptr, ptr, ptr, ptr }
%struct.pmix_list_item_t = type { %struct.pmix_object_t, ptr, ptr, i32 }
%struct.pmix_nodeinfo_t = type { %struct.pmix_list_item_t, i32, ptr, ptr, %struct.pmix_list_t }

; Function Attrs: nounwind uwtable
define zeroext i1 @pmix_gds_hash_check_hostname(ptr noundef %0, ptr noundef %1) #0 {
  %3 = alloca i1, align 1
  %4 = alloca ptr, align 8
  %5 = alloca ptr, align 8
  store ptr %0, ptr %4, align 8, !tbaa !3
  store ptr %1, ptr %5, align 8, !tbaa !3
  %6 = load ptr, ptr %4, align 8, !tbaa !3
  %7 = load ptr, ptr %5, align 8, !tbaa !3
  %8 = call i32 @strcmp(ptr noundef %6, ptr noundef %7) #12
  %9 = icmp eq i32 0, %8
  br i1 %9, label %10, label %11

10:                                               ; preds = %2
  store i1 true, ptr %3, align 1
  br label %12

11:                                               ; preds = %2
  store i1 false, ptr %3, align 1
  br label %12

12:                                               ; preds = %11, %10
  %13 = load i1, ptr %3, align 1
  ret i1 %13
}

; Function Attrs: nounwind uwtable
define zeroext i1 @pmix_gds_hash_check_node(ptr noundef %0, ptr noundef %1) #0 {
  %3 = alloca i1, align 1
  %4 = alloca ptr, align 8
  %5 = alloca ptr, align 8
  %6 = alloca i32, align 4
  %7 = alloca i32, align 4
  %8 = alloca i32, align 4
  store ptr %0, ptr %4, align 8, !tbaa !10
  store ptr %1, ptr %5, align 8, !tbaa !10
  call void @llvm.lifetime.start.p0(i64 4, ptr %6) #11
  call void @llvm.lifetime.start.p0(i64 4, ptr %7) #11
  %9 = load ptr, ptr %4, align 8, !tbaa !10
  %10 = getelementptr inbounds nuw %struct.pmix_nodeinfo_t, ptr %9, i32 0, i32 1
  %11 = load i32, ptr %10, align 8, !tbaa !83
  %12 = icmp ne i32 -1, %11
  br i1 %12, label %13, label %27

13:                                               ; preds = %2
  %14 = load ptr, ptr %5, align 8, !tbaa !10
  %15 = getelementptr inbounds nuw %struct.pmix_nodeinfo_t, ptr %14, i32 0, i32 1
  %16 = load i32, ptr %15, align 8, !tbaa !83
  %17 = icmp ne i32 -1, %16
  br i1 %17, label %18, label %27

18:                                               ; preds = %13
  %19 = load ptr, ptr %4, align 8, !tbaa !10
  %20 = getelementptr inbounds nuw %struct.pmix_nodeinfo_t, ptr %19, i32 0, i32 1
  %21 = load i32, ptr %20, align 8, !tbaa !83
  %22 = load ptr, ptr %5, align 8, !tbaa !10
  %23 = getelementptr inbounds nuw %struct.pmix_nodeinfo_t, ptr %22, i32 0, i32 1
  %24 = load i32, ptr %23, align 8, !tbaa !83
  %25 = icmp eq i32 %21, %24
  br i1 %25, label %26, label %27

26:                                               ; preds = %18
  store i1 true, ptr %3, align 1
  store i32 1, ptr %8, align 4
  br label %165

27:                                               ; preds = %18, %13, %2
  %28 = load ptr, ptr %4, align 8, !tbaa !10
  %29 = getelementptr inbounds nuw %struct.pmix_nodeinfo_t, ptr %28, i32 0, i32 2
  %30 = load ptr, ptr %29, align 8, !tbaa !86
  %31 = icmp eq ptr null, %30
  br i1 %31, label %37, label %32

32:                                               ; preds = %27
  %33 = load ptr, ptr %5, align 8, !tbaa !10
  %34 = getelementptr inbounds nuw %struct.pmix_nodeinfo_t, ptr %33, i32 0, i32 2
  %35 = load ptr, ptr %34, align 8, !tbaa !86
  %36 = icmp eq ptr null, %35
  br i1 %36, label %37, label %38

37:                                               ; preds = %32, %27
  store i1 false, ptr %3, align 1
  store i32 1, ptr %8, align 4
  br label %165

38:                                               ; preds = %32
  %39 = load ptr, ptr %4, align 8, !tbaa !10
  %40 = getelementptr inbounds nuw %struct.pmix_nodeinfo_t, ptr %39, i32 0, i32 2
  %41 = load ptr, ptr %40, align 8, !tbaa !86
  %42 = load ptr, ptr %5, align 8, !tbaa !10
  %43 = getelementptr inbounds nuw %struct.pmix_nodeinfo_t, ptr %42, i32 0, i32 2
  %44 = load ptr, ptr %43, align 8, !tbaa !86
  %45 = call zeroext i1 @pmix_gds_hash_check_hostname(ptr noundef %41, ptr noundef %44)
  br i1 %45, label %46, label %47

46:                                               ; preds = %38
  store i1 true, ptr %3, align 1
  store i32 1, ptr %8, align 4
  br label %165

47:                                               ; preds = %38
  %48 = load ptr, ptr %4, align 8, !tbaa !10
  %49 = getelementptr inbounds nuw %struct.pmix_nodeinfo_t, ptr %48, i32 0, i32 3
  %50 = load ptr, ptr %49, align 8, !tbaa !87
  %51 = icmp ne ptr null, %50
  br i1 %51, label %52, label %130

52:                                               ; preds = %47
  store i32 0, ptr %6, align 4, !tbaa !64
  br label %53

53:                                               ; preds = %126, %52
  %54 = load ptr, ptr %4, align 8, !tbaa !10
  %55 = getelementptr inbounds nuw %struct.pmix_nodeinfo_t, ptr %54, i32 0, i32 3
  %56 = load ptr, ptr %55, align 8, !tbaa !87
  %57 = load i32, ptr %6, align 4, !tbaa !64
  %58 = sext i32 %57 to i64
  %59 = getelementptr inbounds ptr, ptr %56, i64 %58
  %60 = load ptr, ptr %59, align 8, !tbaa !3
  %61 = icmp ne ptr null, %60
  br i1 %61, label %62, label %129

62:                                               ; preds = %53
  %63 = load ptr, ptr %4, align 8, !tbaa !10
  %64 = getelementptr inbounds nuw %struct.pmix_nodeinfo_t, ptr %63, i32 0, i32 3
  %65 = load ptr, ptr %64, align 8, !tbaa !87
  %66 = load i32, ptr %6, align 4, !tbaa !64
  %67 = sext i32 %66 to i64
  %68 = getelementptr inbounds ptr, ptr %65, i64 %67
  %69 = load ptr, ptr %68, align 8, !tbaa !3
  %70 = load ptr, ptr %5, align 8, !tbaa !10
  %71 = getelementptr inbounds nuw %struct.pmix_nodeinfo_t, ptr %70, i32 0, i32 2
  %72 = load ptr, ptr %71, align 8, !tbaa !86
  %73 = call zeroext i1 @pmix_gds_hash_check_hostname(ptr noundef %69, ptr noundef %72)
  br i1 %73, label %74, label %75

74:                                               ; preds = %62
  store i1 true, ptr %3, align 1
  store i32 1, ptr %8, align 4
  br label %165

75:                                               ; preds = %62
  %76 = load ptr, ptr %5, align 8, !tbaa !10
  %77 = getelementptr inbounds nuw %struct.pmix_nodeinfo_t, ptr %76, i32 0, i32 3
  %78 = load ptr, ptr %77, align 8, !tbaa !87
  %79 = icmp ne ptr null, %78
  br i1 %79, label %80, label %125

80:                                               ; preds = %75
  store i32 0, ptr %7, align 4, !tbaa !64
  br label %81

81:                                               ; preds = %121, %80
  %82 = load ptr, ptr %5, align 8, !tbaa !10
  %83 = getelementptr inbounds nuw %struct.pmix_nodeinfo_t, ptr %82, i32 0, i32 3
  %84 = load ptr, ptr %83, align 8, !tbaa !87
  %85 = load i32, ptr %7, align 4, !tbaa !64
  %86 = sext i32 %85 to i64
  %87 = getelementptr inbounds ptr, ptr %84, i64 %86
  %88 = load ptr, ptr %87, align 8, !tbaa !3
  %89 = icmp ne ptr null, %88
  br i1 %89, label %90, label %124

90:                                               ; preds = %81
  %91 = load ptr, ptr %4, align 8, !tbaa !10
  %92 = getelementptr inbounds nuw %struct.pmix_nodeinfo_t, ptr %91, i32 0, i32 2
  %93 = load ptr, ptr %92, align 8, !tbaa !86
  %94 = load ptr, ptr %5, align 8, !tbaa !10
  %95 = getelementptr inbounds nuw %struct.pmix_nodeinfo_t, ptr %94, i32 0, i32 3
  %96 = load ptr, ptr %95, align 8, !tbaa !87
  %97 = load i32, ptr %7, align 4, !tbaa !64
  %98 = sext i32 %97 to i64
  %99 = getelementptr inbounds ptr, ptr %96, i64 %98
  %100 = load ptr, ptr %99, align 8, !tbaa !3
  %101 = call zeroext i1 @pmix_gds_hash_check_hostname(ptr noundef %93, ptr noundef %100)
  br i1 %101, label %102, label %103

102:                                              ; preds = %90
  store i1 true, ptr %3, align 1
  store i32 1, ptr %8, align 4
  br label %165

103:                                              ; preds = %90
  %104 = load ptr, ptr %4, align 8, !tbaa !10
  %105 = getelementptr inbounds nuw %struct.pmix_nodeinfo_t, ptr %104, i32 0, i32 3
  %106 = load ptr, ptr %105, align 8, !tbaa !87
  %107 = load i32, ptr %6, align 4, !tbaa !64
  %108 = sext i32 %107 to i64
  %109 = getelementptr inbounds ptr, ptr %106, i64 %108
  %110 = load ptr, ptr %109, align 8, !tbaa !3
  %111 = load ptr, ptr %5, align 8, !tbaa !10
  %112 = getelementptr inbounds nuw %struct.pmix_nodeinfo_t, ptr %111, i32 0, i32 3
  %113 = load ptr, ptr %112, align 8, !tbaa !87
  %114 = load i32, ptr %7, align 4, !tbaa !64
  %115 = sext i32 %114 to i64
  %116 = getelementptr inbounds ptr, ptr %113, i64 %115
  %117 = load ptr, ptr %116, align 8, !tbaa !3
  %118 = call zeroext i1 @pmix_gds_hash_check_hostname(ptr noundef %110, ptr noundef %117)
  br i1 %118, label %119, label %120

119:                                              ; preds = %103
  store i1 true, ptr %3, align 1
  store i32 1, ptr %8, align 4
  br label %165

120:                                              ; preds = %103
  br label %121

121:                                              ; preds = %120
  %122 = load i32, ptr %7, align 4, !tbaa !64
  %123 = add nsw i32 %122, 1
  store i32 %123, ptr %7, align 4, !tbaa !64
  br label %81, !llvm.loop !88

124:                                              ; preds = %81
  br label %125

125:                                              ; preds = %124, %75
  br label %126

126:                                              ; preds = %125
  %127 = load i32, ptr %6, align 4, !tbaa !64
  %128 = add nsw i32 %127, 1
  store i32 %128, ptr %6, align 4, !tbaa !64
  br label %53, !llvm.loop !89

129:                                              ; preds = %53
  br label %164

130:                                              ; preds = %47
  %131 = load ptr, ptr %5, align 8, !tbaa !10
  %132 = getelementptr inbounds nuw %struct.pmix_nodeinfo_t, ptr %131, i32 0, i32 3
  %133 = load ptr, ptr %132, align 8, !tbaa !87
  %134 = icmp ne ptr null, %133
  br i1 %134, label %135, label %163

135:                                              ; preds = %130
  store i32 0, ptr %7, align 4, !tbaa !64
  br label %136

136:                                              ; preds = %159, %135
  %137 = load ptr, ptr %5, align 8, !tbaa !10
  %138 = getelementptr inbounds nuw %struct.pmix_nodeinfo_t, ptr %137, i32 0, i32 3
  %139 = load ptr, ptr %138, align 8, !tbaa !87
  %140 = load i32, ptr %7, align 4, !tbaa !64
  %141 = sext i32 %140 to i64
  %142 = getelementptr inbounds ptr, ptr %139, i64 %141
  %143 = load ptr, ptr %142, align 8, !tbaa !3
  %144 = icmp ne ptr null, %143
  br i1 %144, label %145, label %162

145:                                              ; preds = %136
  %146 = load ptr, ptr %4, align 8, !tbaa !10
  %147 = getelementptr inbounds nuw %struct.pmix_nodeinfo_t, ptr %146, i32 0, i32 2
  %148 = load ptr, ptr %147, align 8, !tbaa !86
  %149 = load ptr, ptr %5, align 8, !tbaa !10
  %150 = getelementptr inbounds nuw %struct.pmix_nodeinfo_t, ptr %149, i32 0, i32 3
  %151 = load ptr, ptr %150, align 8, !tbaa !87
  %152 = load i32, ptr %7, align 4, !tbaa !64
  %153 = sext i32 %152 to i64
  %154 = getelementptr inbounds ptr, ptr %151, i64 %153
  %155 = load ptr, ptr %154, align 8, !tbaa !3
  %156 = call zeroext i1 @pmix_gds_hash_check_hostname(ptr noundef %148, ptr noundef %155)
  br i1 %156, label %157, label %158

157:                                              ; preds = %145
  store i1 true, ptr %3, align 1
  store i32 1, ptr %8, align 4
  br label %165

158:                                              ; preds = %145
  br label %159

159:                                              ; preds = %158
  %160 = load i32, ptr %7, align 4, !tbaa !64
  %161 = add nsw i32 %160, 1
  store i32 %161, ptr %7, align 4, !tbaa !64
  br label %136, !llvm.loop !90

162:                                              ; preds = %136
  br label %163

163:                                              ; preds = %162, %130
  br label %164

164:                                              ; preds = %163, %129
  store i1 false, ptr %3, align 1
  store i32 1, ptr %8, align 4
  br label %165

165:                                              ; preds = %164, %157, %119, %102, %74, %46, %37, %26
  call void @llvm.lifetime.end.p0(i64 4, ptr %7) #11
  call void @llvm.lifetime.end.p0(i64 4, ptr %6) #11
  %166 = load i1, ptr %3, align 1
  ret i1 %166
}