; Function Attrs: nofree nounwind memory(read, inaccessiblemem: none) uwtable
define noundef zeroext i1 @pmix_gds_hash_check_node(ptr noundef readonly captures(none) %0, ptr noundef readonly captures(none) %1) local_unnamed_addr #7 {
  %3 = getelementptr inbounds nuw i8, ptr %0, i64 144
  %4 = load i32, ptr %3, align 8, !tbaa !46
  %.not = icmp eq i32 %4, -1
  br i1 %.not, label %9, label %5

5:                                                ; preds = %2
  %6 = getelementptr inbounds nuw i8, ptr %1, i64 144
  %7 = load i32, ptr %6, align 8, !tbaa !46
  %8 = icmp eq i32 %4, %7
  br i1 %8, label %.loopexit, label %9

9:                                                ; preds = %5, %2
  %10 = getelementptr inbounds nuw i8, ptr %0, i64 152
  %11 = load ptr, ptr %10, align 8, !tbaa !49
  %12 = icmp eq ptr %11, null
  br i1 %12, label %.loopexit, label %13

13:                                               ; preds = %9
  %14 = getelementptr inbounds nuw i8, ptr %1, i64 152
  %15 = load ptr, ptr %14, align 8, !tbaa !49
  %16 = icmp eq ptr %15, null
  br i1 %16, label %.loopexit, label %17

17:                                               ; preds = %13
  %18 = tail call i32 @strcmp(ptr noundef nonnull readonly dereferenceable(1) %11, ptr noundef nonnull readonly dereferenceable(1) %15) #16
  %19 = icmp eq i32 %18, 0
  br i1 %19, label %.loopexit, label %20

20:                                               ; preds = %17
  %21 = getelementptr inbounds nuw i8, ptr %0, i64 160
  %22 = load ptr, ptr %21, align 8, !tbaa !50
  %.not43 = icmp eq ptr %22, null
  br i1 %.not43, label %43, label %.preheader52

.preheader52:                                     ; preds = %20
  %23 = load ptr, ptr %22, align 8, !tbaa !51
  %.not4657 = icmp eq ptr %23, null
  br i1 %.not4657, label %.loopexit, label %.lr.ph59

.lr.ph59:                                         ; preds = %.preheader52
  %24 = getelementptr inbounds nuw i8, ptr %1, i64 160
  br label %25

25:                                               ; preds = %.lr.ph59, %.loopexit50
  %indvars.iv72 = phi i64 [ 0, %.lr.ph59 ], [ %indvars.iv.next73, %.loopexit50 ]
  %26 = phi ptr [ %23, %.lr.ph59 ], [ %42, %.loopexit50 ]
  %27 = tail call i32 @strcmp(ptr noundef nonnull readonly dereferenceable(1) %26, ptr noundef nonnull readonly dereferenceable(1) %15) #16
  %28 = icmp eq i32 %27, 0
  br i1 %28, label %.loopexit, label %29

29:                                               ; preds = %25
  %30 = load ptr, ptr %24, align 8, !tbaa !50
  %.not47 = icmp eq ptr %30, null
  br i1 %.not47, label %.loopexit50, label %.preheader49

.preheader49:                                     ; preds = %29
  %31 = load ptr, ptr %30, align 8, !tbaa !51
  %.not4855 = icmp eq ptr %31, null
  br i1 %.not4855, label %.loopexit50, label %.lr.ph

32:                                               ; preds = %38
  %indvars.iv.next = add nuw nsw i64 %indvars.iv, 1
  %33 = getelementptr inbounds nuw ptr, ptr %30, i64 %indvars.iv.next
  %34 = load ptr, ptr %33, align 8, !tbaa !51
  %.not48 = icmp eq ptr %34, null
  br i1 %.not48, label %.loopexit50, label %.lr.ph, !llvm.loop !52

.lr.ph:                                           ; preds = %.preheader49, %32
  %indvars.iv = phi i64 [ %indvars.iv.next, %32 ], [ 0, %.preheader49 ]
  %35 = phi ptr [ %34, %32 ], [ %31, %.preheader49 ]
  %36 = tail call i32 @strcmp(ptr noundef nonnull readonly dereferenceable(1) %11, ptr noundef nonnull readonly dereferenceable(1) %35) #16
  %37 = icmp eq i32 %36, 0
  br i1 %37, label %.loopexit, label %38

38:                                               ; preds = %.lr.ph
  %39 = tail call i32 @strcmp(ptr noundef nonnull readonly dereferenceable(1) %26, ptr noundef nonnull readonly dereferenceable(1) %35) #16
  %40 = icmp eq i32 %39, 0
  br i1 %40, label %.loopexit, label %32

.loopexit50:                                      ; preds = %32, %.preheader49, %29
  %indvars.iv.next73 = add nuw nsw i64 %indvars.iv72, 1
  %41 = getelementptr inbounds nuw ptr, ptr %22, i64 %indvars.iv.next73
  %42 = load ptr, ptr %41, align 8, !tbaa !51
  %.not46 = icmp eq ptr %42, null
  br i1 %.not46, label %.loopexit, label %25, !llvm.loop !53

43:                                               ; preds = %20
  %44 = getelementptr inbounds nuw i8, ptr %1, i64 160
  %45 = load ptr, ptr %44, align 8, !tbaa !50
  %.not44 = icmp eq ptr %45, null
  br i1 %.not44, label %.loopexit, label %.preheader

.preheader:                                       ; preds = %43
  %46 = load ptr, ptr %45, align 8, !tbaa !51
  %.not4562 = icmp eq ptr %46, null
  br i1 %.not4562, label %.loopexit, label %.lr.ph64

47:                                               ; preds = %.lr.ph64
  %indvars.iv.next76 = add nuw nsw i64 %indvars.iv75, 1
  %48 = getelementptr inbounds nuw ptr, ptr %45, i64 %indvars.iv.next76
  %49 = load ptr, ptr %48, align 8, !tbaa !51
  %.not45 = icmp eq ptr %49, null
  br i1 %.not45, label %.loopexit, label %.lr.ph64, !llvm.loop !54

.lr.ph64:                                         ; preds = %.preheader, %47
  %indvars.iv75 = phi i64 [ %indvars.iv.next76, %47 ], [ 0, %.preheader ]
  %50 = phi ptr [ %49, %47 ], [ %46, %.preheader ]
  %51 = tail call i32 @strcmp(ptr noundef nonnull readonly dereferenceable(1) %11, ptr noundef nonnull readonly dereferenceable(1) %50) #16
  %52 = icmp eq i32 %51, 0
  br i1 %52, label %.loopexit, label %47

.loopexit:                                        ; preds = %25, %.loopexit50, %38, %.lr.ph, %.lr.ph64, %47, %.preheader52, %.preheader, %43, %17, %9, %13, %5
  %.034 = phi i1 [ true, %5 ], [ false, %13 ], [ false, %9 ], [ true, %17 ], [ false, %43 ], [ false, %.preheader ], [ false, %.preheader52 ], [ %52, %47 ], [ %52, %.lr.ph64 ], [ true, %.lr.ph ], [ true, %38 ], [ %28, %.loopexit50 ], [ %28, %25 ]
  ret i1 %.034
}